; Function Attrs: nounwind uwtable
define noalias nonnull ptr @l___private_Lake_CLI_Serve_0__Lake_mkLeanPaths(ptr noundef %0, ptr noundef %1) local_unnamed_addr #0 {
  %3 = tail call ptr @l_Lake_Workspace_leanPath(ptr noundef %0) #5
  %4 = tail call ptr @l_Lake_Workspace_leanSrcPath(ptr noundef %0) #5
  %5 = getelementptr inbounds nuw i8, ptr %1, i64 8
  %6 = load ptr, ptr %5, align 8, !tbaa !4
  %7 = ptrtoint ptr %6 to i64
  %8 = and i64 %7, 1
  %.not = icmp eq i64 %8, 0
  br i1 %.not, label %9, label %lean_inc.exit23

9:                                                ; preds = %2
  %.val.i = load i32, ptr %6, align 4, !tbaa !8
  %10 = icmp sgt i32 %.val.i, 0
  br i1 %10, label %11, label %13, !prof !11

11:                                               ; preds = %9
  %12 = add nuw i32 %.val.i, 1
  store i32 %12, ptr %6, align 4, !tbaa !8
  br label %lean_inc.exit23

13:                                               ; preds = %9
  %.not.i25 = icmp eq i32 %.val.i, 0
  br i1 %.not.i25, label %lean_inc.exit23, label %14

14:                                               ; preds = %13
  tail call void @lean_inc_ref_cold(ptr noundef nonnull %6) #5
  br label %lean_inc.exit23

lean_inc.exit23:                                  ; preds = %14, %13, %11, %2
  %15 = getelementptr i8, ptr %6, i64 8
  %.val24 = load i64, ptr %15, align 8, !tbaa !12
  %16 = tail call ptr @l_Array_mapMUnsafe_map___at___private_Lake_CLI_Serve_0__Lake_mkLeanPaths___spec__1(i64 noundef %.val24, i64 noundef 0, ptr noundef %6)
  %17 = getelementptr inbounds nuw i8, ptr %1, i64 16
  %18 = load ptr, ptr %17, align 8, !tbaa !4
  %19 = ptrtoint ptr %18 to i64
  %20 = and i64 %19, 1
  %.not29 = icmp eq i64 %20, 0
  br i1 %.not29, label %21, label %lean_inc.exit

21:                                               ; preds = %lean_inc.exit23
  %.val.i26 = load i32, ptr %18, align 4, !tbaa !8
  %22 = icmp sgt i32 %.val.i26, 0
  br i1 %22, label %23, label %25, !prof !11

23:                                               ; preds = %21
  %24 = add nuw i32 %.val.i26, 1
  store i32 %24, ptr %18, align 4, !tbaa !8
  br label %lean_inc.exit

25:                                               ; preds = %21
  %.not.i27 = icmp eq i32 %.val.i26, 0
  br i1 %.not.i27, label %lean_inc.exit, label %26

26:                                               ; preds = %25
  tail call void @lean_inc_ref_cold(ptr noundef nonnull %18) #5
  br label %lean_inc.exit

lean_inc.exit:                                    ; preds = %26, %25, %23, %lean_inc.exit23
  %27 = ptrtoint ptr %1 to i64
  %28 = and i64 %27, 1
  %.not30 = icmp eq i64 %28, 0
  br i1 %.not30, label %29, label %lean_dec.exit

29:                                               ; preds = %lean_inc.exit
  %30 = load i32, ptr %1, align 4, !tbaa !8
  %31 = icmp sgt i32 %30, 1
  br i1 %31, label %32, label %34, !prof !11

32:                                               ; preds = %29
  %33 = add nsw i32 %30, -1
  store i32 %33, ptr %1, align 4, !tbaa !8
  br label %lean_dec.exit

34:                                               ; preds = %29
  %.not.i = icmp eq i32 %30, 0
  br i1 %.not.i, label %lean_dec.exit, label %35

35:                                               ; preds = %34
  tail call void @lean_dec_ref_cold(ptr noundef nonnull %1) #5
  br label %lean_dec.exit

lean_dec.exit:                                    ; preds = %35, %34, %32, %lean_inc.exit
  %36 = getelementptr i8, ptr %18, i64 8
  %.val = load i64, ptr %36, align 8, !tbaa !12
  %37 = tail call ptr @l_Array_mapMUnsafe_map___at___private_Lake_CLI_Serve_0__Lake_mkLeanPaths___spec__1(i64 noundef %.val, i64 noundef 0, ptr noundef %18)
  tail call void @lean_inc_heartbeat() #5
  %38 = tail call noalias ptr @mi_malloc_small(i64 noundef 40) #5
  %39 = icmp eq ptr %38, null
  br i1 %39, label %40, label %lean_alloc_ctor.exit

40:                                               ; preds = %lean_dec.exit
  tail call void @lean_internal_panic_out_of_memory() #6
  unreachable

lean_alloc_ctor.exit:                             ; preds = %lean_dec.exit
  %41 = getelementptr inbounds nuw i8, ptr %38, i64 4
  store i32 1, ptr %38, align 4, !tbaa !8
  store i32 262184, ptr %41, align 4
  %42 = getelementptr inbounds nuw i8, ptr %38, i64 8
  store ptr %3, ptr %42, align 8, !tbaa !4
  %43 = getelementptr inbounds nuw i8, ptr %38, i64 16
  store ptr %4, ptr %43, align 8, !tbaa !4
  %44 = getelementptr inbounds nuw i8, ptr %38, i64 24
  store ptr %16, ptr %44, align 8, !tbaa !4
  %45 = getelementptr inbounds nuw i8, ptr %38, i64 32
  store ptr %37, ptr %45, align 8, !tbaa !4
  ret ptr %38
}